target datalayout = "e-m:e-p270:32:32-p271:32:32-p272:64:64-i64:64-i128:128-f80:128-n8:16:32:64-S128"
target triple = "x86_64-pc-linux-gnu"

%struct.ssl_st = type { i32, i16, i16, ptr, ptr, ptr, ptr, ptr, i32, i32, ptr, ptr, i32, i32, ptr, ptr, ptr, ptr, ptr, ptr, ptr, ptr, i32, i32, [32 x i8], ptr, ptr, ptr, ptr, ptr, ptr, ptr, i64, %struct.crypto_ex_data_st, ptr, i32, i32, i32, i32, i16, ptr, i32, i64, ptr, ptr, ptr, ptr, ptr, ptr, i32, i32, ptr, ptr, i8, i8, i32 }
%struct.crypto_ex_data_st = type { ptr }

@.str = private unnamed_addr constant [117 x i8] c"generated/home/dtcxzyw/WorkSpace/Projects/compilers/llvm-opt-benchmark/bench/libquic/libquic/boringssl/ssl/ssl_rsa.c\00", align 1

; Function Attrs: nounwind uwtable
define hidden i32 @SSL_use_RSAPrivateKey(ptr noundef %0, ptr noundef %1) #0 {
  %3 = alloca i32, align 4
  %4 = alloca ptr, align 8
  %5 = alloca ptr, align 8
  %6 = alloca ptr, align 8
  %7 = alloca i32, align 4
  %8 = alloca i32, align 4
  store ptr %0, ptr %4, align 8, !tbaa !6
  store ptr %1, ptr %5, align 8, !tbaa !56
  call void @llvm.lifetime.start.p0(i64 8, ptr %6) #4
  call void @llvm.lifetime.start.p0(i64 4, ptr %7) #4
  %9 = load ptr, ptr %5, align 8, !tbaa !56
  %10 = icmp eq ptr %9, null
  br i1 %10, label %11, label %12

11:                                               ; preds = %2
  call void @ERR_put_error(i32 noundef 16, i32 noundef 0, i32 noundef 67, ptr noundef @.str, i32 noundef 108)
  store i32 0, ptr %3, align 4
  store i32 1, ptr %8, align 4
  br label %30

12:                                               ; preds = %2
  %13 = call ptr @EVP_PKEY_new()
  store ptr %13, ptr %6, align 8, !tbaa !40
  %14 = load ptr, ptr %6, align 8, !tbaa !40
  %15 = icmp eq ptr %14, null
  br i1 %15, label %16, label %17

16:                                               ; preds = %12
  call void @ERR_put_error(i32 noundef 16, i32 noundef 0, i32 noundef 6, ptr noundef @.str, i32 noundef 114)
  store i32 0, ptr %3, align 4
  store i32 1, ptr %8, align 4
  br label %30

17:                                               ; preds = %12
  %18 = load ptr, ptr %5, align 8, !tbaa !56
  %19 = call i32 @RSA_up_ref(ptr noundef %18)
  %20 = load ptr, ptr %6, align 8, !tbaa !40
  %21 = load ptr, ptr %5, align 8, !tbaa !56
  %22 = call i32 @EVP_PKEY_assign_RSA(ptr noundef %20, ptr noundef %21)
  %23 = load ptr, ptr %4, align 8, !tbaa !6
  %24 = getelementptr inbounds nuw %struct.ssl_st, ptr %23, i32 0, i32 21
  %25 = load ptr, ptr %24, align 8, !tbaa !13
  %26 = load ptr, ptr %6, align 8, !tbaa !40
  %27 = call i32 @ssl_set_pkey(ptr noundef %25, ptr noundef %26)
  store i32 %27, ptr %7, align 4, !tbaa !55
  %28 = load ptr, ptr %6, align 8, !tbaa !40
  call void @EVP_PKEY_free(ptr noundef %28)
  %29 = load i32, ptr %7, align 4, !tbaa !55
  store i32 %29, ptr %3, align 4
  store i32 1, ptr %8, align 4
  br label %30

30:                                               ; preds = %17, %16, %11
  call void @llvm.lifetime.end.p0(i64 4, ptr %7) #4
  call void @llvm.lifetime.end.p0(i64 8, ptr %6) #4
  %31 = load i32, ptr %3, align 4
  ret i32 %31
}